target datalayout = "e-m:e-p270:32:32-p271:32:32-p272:64:64-i64:64-i128:128-f80:128-n8:16:32:64-S128"
target triple = "x86_64-pc-linux-gnu"

%struct.mi_memid_s = type { %union.anon, i8, i8, i8, i32 }
%union.anon = type { %struct.mi_memid_os_info }
%struct.mi_memid_os_info = type { ptr, i64 }

@mi_os_mem_config = internal global { i64, i64, i64, i64, i64, i8, i8, i8, [5 x i8] } { i64 4096, i64 0, i64 4096, i64 34359738368, i64 48, i8 1, i8 0, i8 1, [5 x i8] zeroinitializer }, align 8

; Function Attrs: inlinehint nounwind uwtable
define internal i64 @_mi_align_up(i64 noundef %0, i64 noundef %1) #4 {
  %3 = alloca i64, align 8
  %4 = alloca i64, align 8
  %5 = alloca i64, align 8
  %6 = alloca i64, align 8
  %7 = alloca i32, align 4
  store i64 %0, ptr %4, align 8, !tbaa !14
  store i64 %1, ptr %5, align 8, !tbaa !14
  call void @llvm.lifetime.start.p0(i64 8, ptr %6) #9
  %8 = load i64, ptr %5, align 8, !tbaa !14
  %9 = sub i64 %8, 1
  store i64 %9, ptr %6, align 8, !tbaa !14
  %10 = load i64, ptr %5, align 8, !tbaa !14
  %11 = load i64, ptr %6, align 8, !tbaa !14
  %12 = and i64 %10, %11
  %13 = icmp eq i64 %12, 0
  br i1 %13, label %14, label %21

14:                                               ; preds = %2
  %15 = load i64, ptr %4, align 8, !tbaa !14
  %16 = load i64, ptr %6, align 8, !tbaa !14
  %17 = add i64 %15, %16
  %18 = load i64, ptr %6, align 8, !tbaa !14
  %19 = xor i64 %18, -1
  %20 = and i64 %17, %19
  store i64 %20, ptr %3, align 8
  store i32 1, ptr %7, align 4
  br label %29

21:                                               ; preds = %2
  %22 = load i64, ptr %4, align 8, !tbaa !14
  %23 = load i64, ptr %6, align 8, !tbaa !14
  %24 = add i64 %22, %23
  %25 = load i64, ptr %5, align 8, !tbaa !14
  %26 = udiv i64 %24, %25
  %27 = load i64, ptr %5, align 8, !tbaa !14
  %28 = mul i64 %26, %27
  store i64 %28, ptr %3, align 8
  store i32 1, ptr %7, align 4
  br label %29

29:                                               ; preds = %21, %14
  call void @llvm.lifetime.end.p0(i64 8, ptr %6) #9
  %30 = load i64, ptr %3, align 8
  ret i64 %30
}

; Function Attrs: nounwind uwtable
define hidden i64 @_mi_os_page_size() #0 {
  %1 = load i64, ptr @mi_os_mem_config, align 8, !tbaa !12
  ret i64 %1
}

; Function Attrs: inlinehint nounwind uwtable
define internal void @_mi_memid_create(ptr dead_on_unwind noalias writable sret(%struct.mi_memid_s) align 8 %0, i32 noundef %1) #4 {
  %3 = alloca i32, align 4
  store i32 %1, ptr %3, align 4, !tbaa !25
  call void @llvm.memset.p0.i64(ptr align 8 %0, i8 0, i64 24, i1 false)
  %4 = load i32, ptr %3, align 4, !tbaa !25
  %5 = getelementptr inbounds nuw %struct.mi_memid_s, ptr %0, i32 0, i32 4
  store i32 %4, ptr %5, align 4, !tbaa !21
  ret void
}

; Function Attrs: inlinehint nounwind uwtable
define internal void @_mi_memid_create_os(ptr dead_on_unwind noalias writable sret(%struct.mi_memid_s) align 8 %0, i1 noundef zeroext %1, i1 noundef zeroext %2, i1 noundef zeroext %3) #4 {
  %5 = alloca i8, align 1
  %6 = alloca i8, align 1
  %7 = alloca i8, align 1
  %8 = zext i1 %1 to i8
  store i8 %8, ptr %5, align 1, !tbaa !16
  %9 = zext i1 %2 to i8
  store i8 %9, ptr %6, align 1, !tbaa !16
  %10 = zext i1 %3 to i8
  store i8 %10, ptr %7, align 1, !tbaa !16
  call void @_mi_memid_create(ptr dead_on_unwind writable sret(%struct.mi_memid_s) align 8 %0, i32 noundef 3) #8
  %11 = load i8, ptr %5, align 1, !tbaa !16, !range !9, !noundef !10
  %12 = trunc i8 %11 to i1
  %13 = getelementptr inbounds nuw %struct.mi_memid_s, ptr %0, i32 0, i32 2
  %14 = zext i1 %12 to i8
  store i8 %14, ptr %13, align 1, !tbaa !35
  %15 = load i8, ptr %6, align 1, !tbaa !16, !range !9, !noundef !10
  %16 = trunc i8 %15 to i1
  %17 = getelementptr inbounds nuw %struct.mi_memid_s, ptr %0, i32 0, i32 3
  %18 = zext i1 %16 to i8
  store i8 %18, ptr %17, align 2, !tbaa !36
  %19 = load i8, ptr %7, align 1, !tbaa !16, !range !9, !noundef !10
  %20 = trunc i8 %19 to i1
  %21 = getelementptr inbounds nuw %struct.mi_memid_s, ptr %0, i32 0, i32 1
  %22 = zext i1 %20 to i8
  store i8 %22, ptr %21, align 8, !tbaa !37
  ret void
}

; Function Attrs: nounwind uwtable
define hidden i64 @_mi_os_good_alloc_size(i64 noundef %0) #0 {
  %2 = alloca i64, align 8
  %3 = alloca i64, align 8
  %4 = alloca i64, align 8
  %5 = alloca i32, align 4
  store i64 %0, ptr %3, align 8, !tbaa !14
  call void @llvm.lifetime.start.p0(i64 8, ptr %4) #9
  %6 = load i64, ptr %3, align 8, !tbaa !14
  %7 = icmp ult i64 %6, 524288
  br i1 %7, label %8, label %10

8:                                                ; preds = %1
  %9 = call i64 @_mi_os_page_size() #8
  store i64 %9, ptr %4, align 8, !tbaa !14
  br label %26

10:                                               ; preds = %1
  %11 = load i64, ptr %3, align 8, !tbaa !14
  %12 = icmp ult i64 %11, 2097152
  br i1 %12, label %13, label %14

13:                                               ; preds = %10
  store i64 65536, ptr %4, align 8, !tbaa !14
  br label %25

14:                                               ; preds = %10
  %15 = load i64, ptr %3, align 8, !tbaa !14
  %16 = icmp ult i64 %15, 8388608
  br i1 %16, label %17, label %18

17:                                               ; preds = %14
  store i64 262144, ptr %4, align 8, !tbaa !14
  br label %24

18:                                               ; preds = %14
  %19 = load i64, ptr %3, align 8, !tbaa !14
  %20 = icmp ult i64 %19, 33554432
  br i1 %20, label %21, label %22

21:                                               ; preds = %18
  store i64 1048576, ptr %4, align 8, !tbaa !14
  br label %23

22:                                               ; preds = %18
  store i64 4194304, ptr %4, align 8, !tbaa !14
  br label %23

23:                                               ; preds = %22, %21
  br label %24

24:                                               ; preds = %23, %17
  br label %25

25:                                               ; preds = %24, %13
  br label %26

26:                                               ; preds = %25, %8
  %27 = load i64, ptr %3, align 8, !tbaa !14
  %28 = load i64, ptr %4, align 8, !tbaa !14
  %29 = sub i64 -1, %28
  %30 = icmp uge i64 %27, %29
  %31 = xor i1 %30, true
  %32 = xor i1 %31, true
  %33 = zext i1 %32 to i32
  %34 = sext i32 %33 to i64
  %35 = call i64 @llvm.expect.i64(i64 %34, i64 0)
  %36 = icmp ne i64 %35, 0
  br i1 %36, label %37, label %39

37:                                               ; preds = %26
  %38 = load i64, ptr %3, align 8, !tbaa !14
  store i64 %38, ptr %2, align 8
  store i32 1, ptr %5, align 4
  br label %43

39:                                               ; preds = %26
  %40 = load i64, ptr %3, align 8, !tbaa !14
  %41 = load i64, ptr %4, align 8, !tbaa !14
  %42 = call i64 @_mi_align_up(i64 noundef %40, i64 noundef %41) #8
  store i64 %42, ptr %2, align 8
  store i32 1, ptr %5, align 4
  br label %43

43:                                               ; preds = %39, %37
  call void @llvm.lifetime.end.p0(i64 8, ptr %4) #9
  %44 = load i64, ptr %2, align 8
  ret i64 %44
}

; Function Attrs: inlinehint nounwind uwtable
define internal void @_mi_memid_none(ptr dead_on_unwind noalias writable sret(%struct.mi_memid_s) align 8 %0) #4 {
  call void @_mi_memid_create(ptr dead_on_unwind writable sret(%struct.mi_memid_s) align 8 %0, i32 noundef 0) #8
  ret void
}

; Function Attrs: nounwind uwtable
define hidden ptr @_mi_os_alloc(i64 noundef %0, ptr noundef %1) #0 {
  %3 = alloca ptr, align 8
  %4 = alloca i64, align 8
  %5 = alloca ptr, align 8
  %6 = alloca %struct.mi_memid_s, align 8
  %7 = alloca i8, align 1
  %8 = alloca i8, align 1
  %9 = alloca ptr, align 8
  %10 = alloca %struct.mi_memid_s, align 8
  store i64 %0, ptr %4, align 8, !tbaa !14
  store ptr %1, ptr %5, align 8, !tbaa !30
  %11 = load ptr, ptr %5, align 8, !tbaa !30
  call void @llvm.lifetime.start.p0(i64 24, ptr %6) #9
  call void @_mi_memid_none(ptr dead_on_unwind writable sret(%struct.mi_memid_s) align 8 %6) #8
  call void @llvm.memcpy.p0.p0.i64(ptr align 8 %11, ptr align 8 %6, i64 24, i1 false), !tbaa.struct !32
  call void @llvm.lifetime.end.p0(i64 24, ptr %6) #9
  %12 = load i64, ptr %4, align 8, !tbaa !14
  %13 = icmp eq i64 %12, 0
  br i1 %13, label %14, label %15

14:                                               ; preds = %2
  store ptr null, ptr %3, align 8
  br label %30

15:                                               ; preds = %2
  %16 = load i64, ptr %4, align 8, !tbaa !14
  %17 = call i64 @_mi_os_good_alloc_size(i64 noundef %16) #8
  store i64 %17, ptr %4, align 8, !tbaa !14
  call void @llvm.lifetime.start.p0(i64 1, ptr %7) #9
  store i8 0, ptr %7, align 1, !tbaa !16
  call void @llvm.lifetime.start.p0(i64 1, ptr %8) #9
  store i8 0, ptr %8, align 1, !tbaa !16
  call void @llvm.lifetime.start.p0(i64 8, ptr %9) #9
  %18 = load i64, ptr %4, align 8, !tbaa !14
  %19 = call ptr @mi_os_prim_alloc(i64 noundef %18, i64 noundef 0, i1 noundef zeroext true, i1 noundef zeroext false, ptr noundef %7, ptr noundef %8) #8
  store ptr %19, ptr %9, align 8, !tbaa !20
  %20 = load ptr, ptr %9, align 8, !tbaa !20
  %21 = icmp ne ptr %20, null
  br i1 %21, label %22, label %28

22:                                               ; preds = %15
  %23 = load ptr, ptr %5, align 8, !tbaa !30
  call void @llvm.lifetime.start.p0(i64 24, ptr %10) #9
  %24 = load i8, ptr %8, align 1, !tbaa !16, !range !9, !noundef !10
  %25 = trunc i8 %24 to i1
  %26 = load i8, ptr %7, align 1, !tbaa !16, !range !9, !noundef !10
  %27 = trunc i8 %26 to i1
  call void @_mi_memid_create_os(ptr dead_on_unwind writable sret(%struct.mi_memid_s) align 8 %10, i1 noundef zeroext true, i1 noundef zeroext %25, i1 noundef zeroext %27) #8
  call void @llvm.memcpy.p0.p0.i64(ptr align 8 %23, ptr align 8 %10, i64 24, i1 false), !tbaa.struct !32
  call void @llvm.lifetime.end.p0(i64 24, ptr %10) #9
  br label %28

28:                                               ; preds = %22, %15
  %29 = load ptr, ptr %9, align 8, !tbaa !20
  store ptr %29, ptr %3, align 8
  call void @llvm.lifetime.end.p0(i64 8, ptr %9) #9
  call void @llvm.lifetime.end.p0(i64 1, ptr %8) #9
  call void @llvm.lifetime.end.p0(i64 1, ptr %7) #9
  br label %30

30:                                               ; preds = %28, %14
  %31 = load ptr, ptr %3, align 8
  ret ptr %31
}