; Function Attrs: nounwind uwtable
define hidden ptr @_mi_os_alloc(i64 noundef %0, ptr noundef writeonly captures(none) initializes((0, 24)) %1) local_unnamed_addr #1 {
  %3 = alloca i8, align 1
  %4 = alloca i8, align 1
  tail call void @llvm.memset.p0.i64(ptr noundef nonnull align 8 dereferenceable(24) %1, i8 0, i64 24, i1 false)
  %5 = icmp eq i64 %0, 0
  br i1 %5, label %34, label %6

6:                                                ; preds = %2
  %7 = icmp ult i64 %0, 524288
  br i1 %7, label %8, label %10

8:                                                ; preds = %6
  %9 = load i64, ptr @mi_os_mem_config, align 8, !tbaa !12
  br label %16

10:                                               ; preds = %6
  %11 = icmp ult i64 %0, 2097152
  br i1 %11, label %16, label %12

12:                                               ; preds = %10
  %13 = icmp ult i64 %0, 8388608
  br i1 %13, label %16, label %14

14:                                               ; preds = %12
  %15 = icmp ult i64 %0, 33554432
  %..i = select i1 %15, i64 1048576, i64 4194304
  br label %16

16:                                               ; preds = %14, %12, %10, %8
  %.0.i = phi i64 [ %9, %8 ], [ 65536, %10 ], [ 262144, %12 ], [ %..i, %14 ]
  %17 = xor i64 %.0.i, -1
  %.not.i = icmp ult i64 %0, %17
  br i1 %.not.i, label %18, label %_mi_os_good_alloc_size.exit, !prof !14

18:                                               ; preds = %16
  %19 = tail call range(i64 0, 65) i64 @llvm.ctpop.i64(i64 %.0.i)
  %20 = icmp samesign ult i64 %19, 2
  %21 = add i64 %0, -1
  %22 = add i64 %21, %.0.i
  br i1 %20, label %23, label %26

23:                                               ; preds = %18
  %24 = sub i64 0, %.0.i
  %25 = and i64 %22, %24
  br label %_mi_os_good_alloc_size.exit

26:                                               ; preds = %18
  %27 = urem i64 %22, %.0.i
  %28 = sub nuw i64 %22, %27
  br label %_mi_os_good_alloc_size.exit

_mi_os_good_alloc_size.exit:                      ; preds = %16, %23, %26
  %.010.i = phi i64 [ %0, %16 ], [ %25, %23 ], [ %28, %26 ]
  call void @llvm.lifetime.start.p0(i64 1, ptr nonnull %3) #9
  store i8 0, ptr %3, align 1, !tbaa !24
  call void @llvm.lifetime.start.p0(i64 1, ptr nonnull %4) #9
  store i8 0, ptr %4, align 1, !tbaa !24
  %29 = call fastcc ptr @mi_os_prim_alloc(i64 noundef %.010.i, i64 noundef 0, i1 noundef zeroext true, i1 noundef zeroext false, ptr noundef %3, ptr noundef %4) #8
  %.not = icmp eq ptr %29, null
  br i1 %.not, label %33, label %30

30:                                               ; preds = %_mi_os_good_alloc_size.exit
  %31 = load i8, ptr %4, align 1, !tbaa !24, !range !9, !noundef !10
  %32 = load i8, ptr %3, align 1, !tbaa !24, !range !9, !noundef !10
  call void @llvm.memset.p0.i64(ptr noundef nonnull align 8 dereferenceable(16) %1, i8 0, i64 16, i1 false)
  %.sroa.4.0..sroa_idx = getelementptr inbounds nuw i8, ptr %1, i64 16
  store i8 %32, ptr %.sroa.4.0..sroa_idx, align 8, !tbaa !24
  %.sroa.5.0..sroa_idx = getelementptr inbounds nuw i8, ptr %1, i64 17
  store i8 1, ptr %.sroa.5.0..sroa_idx, align 1, !tbaa !24
  %.sroa.6.0..sroa_idx = getelementptr inbounds nuw i8, ptr %1, i64 18
  store i8 %31, ptr %.sroa.6.0..sroa_idx, align 2, !tbaa !24
  %.sroa.7.0..sroa_idx = getelementptr inbounds nuw i8, ptr %1, i64 19
  store i8 0, ptr %.sroa.7.0..sroa_idx, align 1
  %.sroa.78.0..sroa_idx = getelementptr inbounds nuw i8, ptr %1, i64 20
  store i32 3, ptr %.sroa.78.0..sroa_idx, align 4, !tbaa !25
  br label %33

33:                                               ; preds = %30, %_mi_os_good_alloc_size.exit
  call void @llvm.lifetime.end.p0(i64 1, ptr nonnull %4) #9
  call void @llvm.lifetime.end.p0(i64 1, ptr nonnull %3) #9
  br label %34

34:                                               ; preds = %2, %33
  %.0 = phi ptr [ %29, %33 ], [ null, %2 ]
  ret ptr %.0
}